; Function Attrs: mustprogress nofree norecurse nosync nounwind willreturn memory(read, inaccessiblemem: none) uwtable
define noundef i32 @_ZN8LightGBM16GetConflictCountERKSt6vectorIbSaIbEEPKiii(ptr noundef nonnull readonly align 8 captures(none) dereferenceable(40) %0, ptr noundef readonly captures(none) %1, i32 noundef %2, i32 noundef %3) local_unnamed_addr #23 personality ptr @__gxx_personality_v0 {
  %.not17 = icmp sgt i32 %2, 0
  br i1 %.not17, label %.lr.ph, label %._crit_edge

.lr.ph:                                           ; preds = %4
  %5 = load ptr, ptr %0, align 8, !tbaa !291
  %wide.trip.count = zext nneg i32 %2 to i64
  br label %7

6:                                                ; preds = %7
  %indvars.iv.next = add nuw nsw i64 %indvars.iv, 1
  %exitcond.not = icmp eq i64 %indvars.iv.next, %wide.trip.count
  br i1 %exitcond.not, label %._crit_edge, label %7, !llvm.loop !293

7:                                                ; preds = %.lr.ph, %6
  %indvars.iv = phi i64 [ 0, %.lr.ph ], [ %indvars.iv.next, %6 ]
  %.01218 = phi i32 [ 0, %.lr.ph ], [ %spec.select, %6 ]
  %8 = getelementptr inbounds nuw i32, ptr %1, i64 %indvars.iv
  %9 = load i32, ptr %8, align 4, !tbaa !104
  %10 = sext i32 %9 to i64
  %11 = sdiv i32 %9, 64
  %.sext = sext i32 %11 to i64
  %12 = getelementptr inbounds i64, ptr %5, i64 %.sext
  %13 = and i64 %10, -9223372036854775745
  %14 = icmp ugt i64 %13, -9223372036854775808
  %storemerge.idx.i.i.i.i.i = select i1 %14, i64 -8, i64 0
  %storemerge.i.i.i.i.i = getelementptr inbounds i8, ptr %12, i64 %storemerge.idx.i.i.i.i.i
  %15 = and i64 %10, 63
  %16 = load i64, ptr %storemerge.i.i.i.i.i, align 8, !tbaa !10
  %17 = lshr i64 %16, %15
  %18 = trunc i64 %17 to i32
  %19 = and i32 %18, 1
  %spec.select = add nuw nsw i32 %19, %.01218
  %20 = icmp sgt i32 %spec.select, %3
  br i1 %20, label %._crit_edge, label %6

._crit_edge:                                      ; preds = %6, %7, %4
  %spec.select15 = phi i32 [ 0, %4 ], [ -1, %7 ], [ %spec.select, %6 ]
  ret i32 %spec.select15
}